target datalayout = "e-m:e-p270:32:32-p271:32:32-p272:64:64-i64:64-i128:128-f80:128-n8:16:32:64-S128"
target triple = "x86_64-pc-linux-gnu"

%struct.Argon2_instance_t = type { ptr, ptr, i32, i32, i32, i32, i32, i32, i32, i32, i32 }
%struct.Argon2_position_t = type { i32, i32, i8, i32 }

@fill_segment = internal global ptr @_sodium_argon2_fill_segment_ref, align 8

; Function Attrs: nounwind ssp uwtable
define hidden void @_sodium_argon2_fill_memory_blocks(ptr noundef %0, i32 noundef %1) #0 {
  %3 = alloca ptr, align 8
  %4 = alloca i32, align 4
  %5 = alloca %struct.Argon2_position_t, align 4
  %6 = alloca i32, align 4
  %7 = alloca i32, align 4
  %8 = alloca i32, align 4
  store ptr %0, ptr %3, align 8
  store i32 %1, ptr %4, align 4
  call void @llvm.lifetime.start.p0(i64 16, ptr %5) #8
  call void @llvm.lifetime.start.p0(i64 4, ptr %6) #8
  call void @llvm.lifetime.start.p0(i64 4, ptr %7) #8
  %9 = load ptr, ptr %3, align 8
  %10 = icmp eq ptr %9, null
  br i1 %10, label %16, label %11

11:                                               ; preds = %2
  %12 = load ptr, ptr %3, align 8
  %13 = getelementptr inbounds nuw %struct.Argon2_instance_t, ptr %12, i32 0, i32 7
  %14 = load i32, ptr %13, align 4
  %15 = icmp eq i32 %14, 0
  br i1 %15, label %16, label %17

16:                                               ; preds = %11, %2
  store i32 1, ptr %8, align 4
  br label %51

17:                                               ; preds = %11
  %18 = load i32, ptr %4, align 4
  %19 = getelementptr inbounds nuw %struct.Argon2_position_t, ptr %5, i32 0, i32 0
  store i32 %18, ptr %19, align 4
  store i32 0, ptr %7, align 4
  br label %20

20:                                               ; preds = %47, %17
  %21 = load i32, ptr %7, align 4
  %22 = icmp ult i32 %21, 4
  br i1 %22, label %23, label %50

23:                                               ; preds = %20
  %24 = load i32, ptr %7, align 4
  %25 = trunc i32 %24 to i8
  %26 = getelementptr inbounds nuw %struct.Argon2_position_t, ptr %5, i32 0, i32 2
  store i8 %25, ptr %26, align 4
  store i32 0, ptr %6, align 4
  br label %27

27:                                               ; preds = %43, %23
  %28 = load i32, ptr %6, align 4
  %29 = load ptr, ptr %3, align 8
  %30 = getelementptr inbounds nuw %struct.Argon2_instance_t, ptr %29, i32 0, i32 7
  %31 = load i32, ptr %30, align 4
  %32 = icmp ult i32 %28, %31
  br i1 %32, label %33, label %46

33:                                               ; preds = %27
  %34 = load i32, ptr %6, align 4
  %35 = getelementptr inbounds nuw %struct.Argon2_position_t, ptr %5, i32 0, i32 1
  store i32 %34, ptr %35, align 4
  %36 = getelementptr inbounds nuw %struct.Argon2_position_t, ptr %5, i32 0, i32 3
  store i32 0, ptr %36, align 4
  %37 = load ptr, ptr @fill_segment, align 8
  %38 = load ptr, ptr %3, align 8
  %39 = getelementptr inbounds nuw { i64, i64 }, ptr %5, i32 0, i32 0
  %40 = load i64, ptr %39, align 4
  %41 = getelementptr inbounds nuw { i64, i64 }, ptr %5, i32 0, i32 1
  %42 = load i64, ptr %41, align 4
  call void %37(ptr noundef %38, i64 %40, i64 %42)
  br label %43

43:                                               ; preds = %33
  %44 = load i32, ptr %6, align 4
  %45 = add i32 %44, 1
  store i32 %45, ptr %6, align 4
  br label %27, !llvm.loop !8

46:                                               ; preds = %27
  br label %47

47:                                               ; preds = %46
  %48 = load i32, ptr %7, align 4
  %49 = add i32 %48, 1
  store i32 %49, ptr %7, align 4
  br label %20, !llvm.loop !9

50:                                               ; preds = %20
  store i32 0, ptr %8, align 4
  br label %51

51:                                               ; preds = %50, %16
  call void @llvm.lifetime.end.p0(i64 4, ptr %7) #8
  call void @llvm.lifetime.end.p0(i64 4, ptr %6) #8
  call void @llvm.lifetime.end.p0(i64 16, ptr %5) #8
  %52 = load i32, ptr %8, align 4
  switch i32 %52, label %54 [
    i32 0, label %53
    i32 1, label %53
  ]

53:                                               ; preds = %51, %51
  ret void

54:                                               ; preds = %51
  unreachable
}